target datalayout = "e-m:e-p270:32:32-p271:32:32-p272:64:64-i64:64-i128:128-f80:128-n8:16:32:64-S128"
target triple = "x86_64-pc-linux-gnu"

%struct.addrinfo = type { i32, i32, i32, i32, i32, ptr, ptr, ptr }
%struct.rbimpl_size_mul_overflow_tag = type { i8, i64 }

; Function Attrs: inlinehint nounwind sspstrong willreturn memory(none) uwtable
define internal { i8, i64 } @rbimpl_size_mul_overflow(i64 noundef %0, i64 noundef %1) #6 {
  %3 = alloca %struct.rbimpl_size_mul_overflow_tag, align 8
  %4 = alloca i64, align 8
  %5 = alloca i64, align 8
  store i64 %0, ptr %4, align 8, !tbaa !31
  store i64 %1, ptr %5, align 8, !tbaa !31
  call void @llvm.memset.p0.i64(ptr align 8 %3, i8 0, i64 16, i1 false)
  %6 = load i64, ptr %4, align 8, !tbaa !31
  %7 = load i64, ptr %5, align 8, !tbaa !31
  %8 = getelementptr inbounds nuw %struct.rbimpl_size_mul_overflow_tag, ptr %3, i32 0, i32 1
  %9 = call { i64, i1 } @llvm.umul.with.overflow.i64(i64 %6, i64 %7)
  %10 = extractvalue { i64, i1 } %9, 1
  %11 = extractvalue { i64, i1 } %9, 0
  store i64 %11, ptr %8, align 8
  %12 = getelementptr inbounds nuw %struct.rbimpl_size_mul_overflow_tag, ptr %3, i32 0, i32 0
  %13 = zext i1 %10 to i8
  store i8 %13, ptr %12, align 8, !tbaa !98
  %14 = load { i8, i64 }, ptr %3, align 8
  ret { i8, i64 } %14
}

; Function Attrs: alwaysinline nounwind
define internal ptr @memset.inline(ptr nonnull %0, i32 %1, i64 %2) #12 {
  %4 = alloca ptr, align 8
  %5 = alloca i32, align 4
  %6 = alloca i64, align 8
  store ptr %0, ptr %4, align 8, !tbaa !26
  store i32 %1, ptr %5, align 4, !tbaa !27
  store i64 %2, ptr %6, align 8, !tbaa !31
  %7 = load ptr, ptr %4, align 8, !tbaa !26
  %8 = load i32, ptr %5, align 4, !tbaa !27
  %9 = load i64, ptr %6, align 8, !tbaa !31
  %10 = load ptr, ptr %4, align 8, !tbaa !26
  %11 = call i64 @llvm.objectsize.i64.p0(ptr %10, i1 false, i1 true, i1 false)
  %12 = call ptr @__memset_chk(ptr noundef %7, i32 noundef %8, i64 noundef %9, i64 noundef %11) #24
  ret ptr %12
}

; Function Attrs: inlinehint nounwind sspstrong uwtable
define internal i64 @rbimpl_size_mul_or_raise(i64 noundef %0, i64 noundef %1) #5 {
  %3 = alloca i64, align 8
  %4 = alloca i64, align 8
  %5 = alloca %struct.rbimpl_size_mul_overflow_tag, align 8
  store i64 %0, ptr %3, align 8, !tbaa !31
  store i64 %1, ptr %4, align 8, !tbaa !31
  call void @llvm.lifetime.start.p0(i64 16, ptr %5) #24
  %6 = load i64, ptr %3, align 8, !tbaa !31
  %7 = load i64, ptr %4, align 8, !tbaa !31
  %8 = call { i8, i64 } @rbimpl_size_mul_overflow(i64 noundef %6, i64 noundef %7) #28
  %9 = getelementptr inbounds nuw { i8, i64 }, ptr %5, i32 0, i32 0
  %10 = extractvalue { i8, i64 } %8, 0
  store i8 %10, ptr %9, align 8
  %11 = getelementptr inbounds nuw { i8, i64 }, ptr %5, i32 0, i32 1
  %12 = extractvalue { i8, i64 } %8, 1
  store i64 %12, ptr %11, align 8
  %13 = getelementptr inbounds nuw %struct.rbimpl_size_mul_overflow_tag, ptr %5, i32 0, i32 0
  %14 = load i8, ptr %13, align 8, !tbaa !98, !range !101, !noundef !102
  %15 = trunc i8 %14 to i1
  %16 = xor i1 %15, true
  %17 = xor i1 %16, true
  %18 = xor i1 %17, true
  %19 = zext i1 %18 to i32
  %20 = sext i32 %19 to i64
  %21 = call i64 @llvm.expect.i64(i64 %20, i64 1)
  %22 = icmp ne i64 %21, 0
  br i1 %22, label %23, label %26

23:                                               ; preds = %2
  %24 = getelementptr inbounds nuw %struct.rbimpl_size_mul_overflow_tag, ptr %5, i32 0, i32 1
  %25 = load i64, ptr %24, align 8, !tbaa !103
  call void @llvm.lifetime.end.p0(i64 16, ptr %5) #24
  ret i64 %25

26:                                               ; preds = %2
  %27 = load i64, ptr %3, align 8, !tbaa !31
  %28 = load i64, ptr %4, align 8, !tbaa !31
  call void @ruby_malloc_size_overflow(i64 noundef %27, i64 noundef %28) #27
  unreachable
}

; Function Attrs: nounwind sspstrong uwtable
define ptr @rsock_addrinfo(i64 noundef %0, i64 noundef %1, i32 noundef %2, i32 noundef %3, i32 noundef %4) #0 {
  %6 = alloca i64, align 8
  %7 = alloca i64, align 8
  %8 = alloca i32, align 4
  %9 = alloca i32, align 4
  %10 = alloca i32, align 4
  %11 = alloca %struct.addrinfo, align 8
  store i64 %0, ptr %6, align 8, !tbaa !31
  store i64 %1, ptr %7, align 8, !tbaa !31
  store i32 %2, ptr %8, align 4, !tbaa !27
  store i32 %3, ptr %9, align 4, !tbaa !27
  store i32 %4, ptr %10, align 4, !tbaa !27
  call void @llvm.lifetime.start.p0(i64 48, ptr %11) #24
  %12 = call i64 @rbimpl_size_mul_or_raise(i64 noundef 48, i64 noundef 1)
  %13 = call ptr @memset.inline(ptr noundef %11, i32 noundef 0, i64 noundef %12) #24
  %14 = load i32, ptr %8, align 4, !tbaa !27
  %15 = getelementptr inbounds nuw %struct.addrinfo, ptr %11, i32 0, i32 1
  store i32 %14, ptr %15, align 4, !tbaa !67
  %16 = load i32, ptr %9, align 4, !tbaa !27
  %17 = getelementptr inbounds nuw %struct.addrinfo, ptr %11, i32 0, i32 2
  store i32 %16, ptr %17, align 8, !tbaa !63
  %18 = load i32, ptr %10, align 4, !tbaa !27
  %19 = getelementptr inbounds nuw %struct.addrinfo, ptr %11, i32 0, i32 0
  store i32 %18, ptr %19, align 8, !tbaa !64
  %20 = load i64, ptr %6, align 8, !tbaa !31
  %21 = load i64, ptr %7, align 8, !tbaa !31
  %22 = call ptr @rsock_getaddrinfo(i64 noundef %20, i64 noundef %21, ptr noundef %11, i32 noundef 1)
  call void @llvm.lifetime.end.p0(i64 48, ptr %11) #24
  ret ptr %22
}