; Function Attrs: nounwind sspstrong uwtable
define noalias noundef nonnull ptr @rsock_addrinfo(i64 noundef %0, i64 noundef %1, i32 noundef %2, i32 noundef %3, i32 noundef %4) local_unnamed_addr #0 {
  %6 = alloca %struct.addrinfo, align 8
  call void @llvm.lifetime.start.p0(i64 48, ptr nonnull %6) #21
  %7 = getelementptr inbounds nuw i8, ptr %6, i64 8
  call void @llvm.memset.p0.i64(ptr noundef nonnull align 8 dereferenceable(48) %7, i8 noundef 0, i64 noundef 40, i1 noundef false) #21
  %8 = getelementptr inbounds nuw i8, ptr %6, i64 4
  store i32 %2, ptr %8, align 4, !tbaa !77
  %9 = getelementptr inbounds nuw i8, ptr %6, i64 8
  store i32 %3, ptr %9, align 8, !tbaa !60
  store i32 %4, ptr %6, align 8, !tbaa !62
  %10 = call ptr @rsock_getaddrinfo(i64 noundef %0, i64 noundef %1, ptr noundef nonnull %6, i32 noundef 1)
  call void @llvm.lifetime.end.p0(i64 48, ptr nonnull %6) #21
  ret ptr %10
}